target datalayout = "e-m:e-p270:32:32-p271:32:32-p272:64:64-i64:64-i128:128-f80:128-n8:16:32:64-S128"
target triple = "x86_64-pc-linux-gnu"

%class.btGeneric6DofConstraint = type <{ %class.btTypedConstraint, %class.btTransform, %class.btTransform, [3 x %class.btJacobianEntry], [3 x %class.btJacobianEntry], %class.btTranslationalLimitMotor, [3 x %class.btRotationalLimitMotor], float, %class.btTransform, %class.btTransform, %class.btVector3, [3 x %class.btVector3], %class.btVector3, float, float, i8, [3 x i8], %class.btVector3, i8, i8, [2 x i8], i32, i8, [3 x i8] }>
%class.btTypedConstraint = type { ptr, %struct.btTypedObject, i32, %union.anon.0, float, i8, i8, i32, ptr, ptr, float, float, ptr }
%struct.btTypedObject = type { i32 }
%union.anon.0 = type { ptr }
%class.btJacobianEntry = type { %class.btVector3, %class.btVector3, %class.btVector3, %class.btVector3, %class.btVector3, float }
%class.btTranslationalLimitMotor = type { %class.btVector3, %class.btVector3, %class.btVector3, float, float, float, %class.btVector3, %class.btVector3, %class.btVector3, [3 x i8], %class.btVector3, %class.btVector3, %class.btVector3, %class.btVector3, [3 x i32] }
%class.btRotationalLimitMotor = type { float, float, float, float, float, float, float, float, float, float, float, i8, float, float, i32, float }
%class.btTransform = type { %class.btMatrix3x3, %class.btVector3 }
%class.btMatrix3x3 = type { [3 x %class.btVector3] }
%class.btVector3 = type { [4 x float] }
%"struct.btTypedConstraint::btConstraintInfo1" = type { i32, i32 }

; Function Attrs: mustprogress nounwind uwtable
define dso_local void @_ZN23btGeneric6DofConstraint18getInfo1NonVirtualEPN17btTypedConstraint17btConstraintInfo1E(ptr noundef nonnull align 8 dereferenceable(1333) %0, ptr noundef %1) #1 align 2 {
  %3 = alloca ptr, align 8
  %4 = alloca ptr, align 8
  store ptr %0, ptr %3, align 8, !tbaa !12
  store ptr %1, ptr %4, align 8, !tbaa !98
  %5 = load ptr, ptr %3, align 8
  %6 = getelementptr inbounds nuw %class.btGeneric6DofConstraint, ptr %5, i32 0, i32 22
  %7 = load i8, ptr %6, align 4, !tbaa !36, !range !22, !noundef !23
  %8 = trunc i8 %7 to i1
  br i1 %8, label %9, label %14

9:                                                ; preds = %2
  %10 = load ptr, ptr %4, align 8, !tbaa !98
  %11 = getelementptr inbounds nuw %"struct.btTypedConstraint::btConstraintInfo1", ptr %10, i32 0, i32 0
  store i32 0, ptr %11, align 4, !tbaa !100
  %12 = load ptr, ptr %4, align 8, !tbaa !98
  %13 = getelementptr inbounds nuw %"struct.btTypedConstraint::btConstraintInfo1", ptr %12, i32 0, i32 1
  store i32 0, ptr %13, align 4, !tbaa !102
  br label %19

14:                                               ; preds = %2
  %15 = load ptr, ptr %4, align 8, !tbaa !98
  %16 = getelementptr inbounds nuw %"struct.btTypedConstraint::btConstraintInfo1", ptr %15, i32 0, i32 0
  store i32 6, ptr %16, align 4, !tbaa !100
  %17 = load ptr, ptr %4, align 8, !tbaa !98
  %18 = getelementptr inbounds nuw %"struct.btTypedConstraint::btConstraintInfo1", ptr %17, i32 0, i32 1
  store i32 0, ptr %18, align 4, !tbaa !102
  br label %19

19:                                               ; preds = %14, %9
  ret void
}