; Function Attrs: mustprogress nofree norecurse nosync nounwind willreturn memory(argmem: readwrite) uwtable
define dso_local void @_ZN23btGeneric6DofConstraint18getInfo1NonVirtualEPN17btTypedConstraint17btConstraintInfo1E(ptr noundef nonnull readonly align 8 captures(none) dereferenceable(1333) %0, ptr noundef writeonly captures(none) initializes((0, 8)) %1) local_unnamed_addr #7 align 2 {
  %3 = getelementptr inbounds nuw i8, ptr %0, i64 1332
  %4 = load i8, ptr %3, align 4, !tbaa !47, !range !57, !noundef !88
  %5 = trunc nuw i8 %4 to i1
  %spec.select = select i1 %5, i32 0, i32 6
  store i32 %spec.select, ptr %1, align 4, !tbaa !121
  %6 = getelementptr inbounds nuw i8, ptr %1, i64 4
  store i32 0, ptr %6, align 4, !tbaa !123
  ret void
}